target datalayout = "e-m:e-p270:32:32-p271:32:32-p272:64:64-i64:64-i128:128-f80:128-n8:16:32:64-S128"
target triple = "x86_64-pc-linux-gnu"

%struct.SurfaceDataRasInfo = type { %struct.SurfaceDataBounds, ptr, i32, i32, i32, i32, ptr, ptr, ptr, ptr, ptr, ptr, i32, %union.anon.0 }
%struct.SurfaceDataBounds = type { i32, i32, i32, i32 }
%union.anon.0 = type { ptr, [56 x i8] }

; Function Attrs: nounwind uwtable
define hidden void @AnyIntSetLine(ptr noundef %0, i32 noundef %1, i32 noundef %2, i32 noundef %3, i32 noundef %4, i32 noundef %5, i32 noundef %6, i32 noundef %7, i32 noundef %8, i32 noundef %9, ptr noundef %10, ptr noundef %11) #0 {
  %13 = alloca ptr, align 8
  %14 = alloca i32, align 4
  %15 = alloca i32, align 4
  %16 = alloca i32, align 4
  %17 = alloca i32, align 4
  %18 = alloca i32, align 4
  %19 = alloca i32, align 4
  %20 = alloca i32, align 4
  %21 = alloca i32, align 4
  %22 = alloca i32, align 4
  %23 = alloca ptr, align 8
  %24 = alloca ptr, align 8
  %25 = alloca i32, align 4
  %26 = alloca ptr, align 8
  %27 = alloca i32, align 4
  %28 = alloca i32, align 4
  store ptr %0, ptr %13, align 8
  store i32 %1, ptr %14, align 4
  store i32 %2, ptr %15, align 4
  store i32 %3, ptr %16, align 4
  store i32 %4, ptr %17, align 4
  store i32 %5, ptr %18, align 4
  store i32 %6, ptr %19, align 4
  store i32 %7, ptr %20, align 4
  store i32 %8, ptr %21, align 4
  store i32 %9, ptr %22, align 4
  store ptr %10, ptr %23, align 8
  store ptr %11, ptr %24, align 8
  %29 = load ptr, ptr %13, align 8
  %30 = getelementptr inbounds %struct.SurfaceDataRasInfo, ptr %29, i32 0, i32 4
  %31 = load i32, ptr %30, align 8
  store i32 %31, ptr %25, align 4
  %32 = load ptr, ptr %13, align 8
  %33 = getelementptr inbounds %struct.SurfaceDataRasInfo, ptr %32, i32 0, i32 1
  %34 = load ptr, ptr %33, align 8
  %35 = ptrtoint ptr %34 to i64
  %36 = load i32, ptr %15, align 4
  %37 = sext i32 %36 to i64
  %38 = load i32, ptr %25, align 4
  %39 = sext i32 %38 to i64
  %40 = mul nsw i64 %37, %39
  %41 = load i32, ptr %14, align 4
  %42 = sext i32 %41 to i64
  %43 = mul nsw i64 %42, 4
  %44 = add nsw i64 %40, %43
  %45 = add nsw i64 %35, %44
  %46 = inttoptr i64 %45 to ptr
  store ptr %46, ptr %26, align 8
  %47 = load i32, ptr %19, align 4
  %48 = and i32 %47, 1
  %49 = icmp ne i32 %48, 0
  br i1 %49, label %50, label %51

50:                                               ; preds = %12
  br label %69

51:                                               ; preds = %12
  %52 = load i32, ptr %19, align 4
  %53 = and i32 %52, 2
  %54 = icmp ne i32 %53, 0
  br i1 %54, label %55, label %56

55:                                               ; preds = %51
  br label %67

56:                                               ; preds = %51
  %57 = load i32, ptr %19, align 4
  %58 = and i32 %57, 4
  %59 = icmp ne i32 %58, 0
  br i1 %59, label %60, label %62

60:                                               ; preds = %56
  %61 = load i32, ptr %25, align 4
  br label %65

62:                                               ; preds = %56
  %63 = load i32, ptr %25, align 4
  %64 = sub nsw i32 0, %63
  br label %65

65:                                               ; preds = %62, %60
  %66 = phi i32 [ %61, %60 ], [ %64, %62 ]
  br label %67

67:                                               ; preds = %65, %55
  %68 = phi i32 [ -4, %55 ], [ %66, %65 ]
  br label %69

69:                                               ; preds = %67, %50
  %70 = phi i32 [ 4, %50 ], [ %68, %67 ]
  store i32 %70, ptr %27, align 4
  %71 = load i32, ptr %21, align 4
  %72 = and i32 %71, 1
  %73 = icmp ne i32 %72, 0
  br i1 %73, label %74, label %75

74:                                               ; preds = %69
  br label %100

75:                                               ; preds = %69
  %76 = load i32, ptr %21, align 4
  %77 = and i32 %76, 2
  %78 = icmp ne i32 %77, 0
  br i1 %78, label %79, label %80

79:                                               ; preds = %75
  br label %98

80:                                               ; preds = %75
  %81 = load i32, ptr %21, align 4
  %82 = and i32 %81, 4
  %83 = icmp ne i32 %82, 0
  br i1 %83, label %84, label %86

84:                                               ; preds = %80
  %85 = load i32, ptr %25, align 4
  br label %96

86:                                               ; preds = %80
  %87 = load i32, ptr %21, align 4
  %88 = and i32 %87, 8
  %89 = icmp ne i32 %88, 0
  br i1 %89, label %90, label %93

90:                                               ; preds = %86
  %91 = load i32, ptr %25, align 4
  %92 = sub nsw i32 0, %91
  br label %94

93:                                               ; preds = %86
  br label %94

94:                                               ; preds = %93, %90
  %95 = phi i32 [ %92, %90 ], [ 0, %93 ]
  br label %96

96:                                               ; preds = %94, %84
  %97 = phi i32 [ %85, %84 ], [ %95, %94 ]
  br label %98

98:                                               ; preds = %96, %79
  %99 = phi i32 [ -4, %79 ], [ %97, %96 ]
  br label %100

100:                                              ; preds = %98, %74
  %101 = phi i32 [ 4, %74 ], [ %99, %98 ]
  store i32 %101, ptr %28, align 4
  %102 = load i32, ptr %27, align 4
  %103 = load i32, ptr %28, align 4
  %104 = add nsw i32 %103, %102
  store i32 %104, ptr %28, align 4
  %105 = load i32, ptr %20, align 4
  %106 = icmp eq i32 %105, 0
  br i1 %106, label %107, label %123

107:                                              ; preds = %100
  br label %108

108:                                              ; preds = %118, %107
  %109 = load i32, ptr %16, align 4
  %110 = load ptr, ptr %26, align 8
  %111 = getelementptr inbounds i32, ptr %110, i64 0
  store i32 %109, ptr %111, align 4
  %112 = load ptr, ptr %26, align 8
  %113 = ptrtoint ptr %112 to i64
  %114 = load i32, ptr %27, align 4
  %115 = sext i32 %114 to i64
  %116 = add nsw i64 %113, %115
  %117 = inttoptr i64 %116 to ptr
  store ptr %117, ptr %26, align 8
  br label %118

118:                                              ; preds = %108
  %119 = load i32, ptr %17, align 4
  %120 = add nsw i32 %119, -1
  store i32 %120, ptr %17, align 4
  %121 = icmp sgt i32 %120, 0
  br i1 %121, label %108, label %122, !llvm.loop !14

122:                                              ; preds = %118
  br label %156

123:                                              ; preds = %100
  br label %124

124:                                              ; preds = %151, %123
  %125 = load i32, ptr %16, align 4
  %126 = load ptr, ptr %26, align 8
  %127 = getelementptr inbounds i32, ptr %126, i64 0
  store i32 %125, ptr %127, align 4
  %128 = load i32, ptr %18, align 4
  %129 = icmp slt i32 %128, 0
  br i1 %129, label %130, label %140

130:                                              ; preds = %124
  %131 = load ptr, ptr %26, align 8
  %132 = ptrtoint ptr %131 to i64
  %133 = load i32, ptr %27, align 4
  %134 = sext i32 %133 to i64
  %135 = add nsw i64 %132, %134
  %136 = inttoptr i64 %135 to ptr
  store ptr %136, ptr %26, align 8
  %137 = load i32, ptr %20, align 4
  %138 = load i32, ptr %18, align 4
  %139 = add nsw i32 %138, %137
  store i32 %139, ptr %18, align 4
  br label %150

140:                                              ; preds = %124
  %141 = load ptr, ptr %26, align 8
  %142 = ptrtoint ptr %141 to i64
  %143 = load i32, ptr %28, align 4
  %144 = sext i32 %143 to i64
  %145 = add nsw i64 %142, %144
  %146 = inttoptr i64 %145 to ptr
  store ptr %146, ptr %26, align 8
  %147 = load i32, ptr %22, align 4
  %148 = load i32, ptr %18, align 4
  %149 = sub nsw i32 %148, %147
  store i32 %149, ptr %18, align 4
  br label %150

150:                                              ; preds = %140, %130
  br label %151

151:                                              ; preds = %150
  %152 = load i32, ptr %17, align 4
  %153 = add nsw i32 %152, -1
  store i32 %153, ptr %17, align 4
  %154 = icmp sgt i32 %153, 0
  br i1 %154, label %124, label %155, !llvm.loop !15

155:                                              ; preds = %151
  br label %156

156:                                              ; preds = %155, %122
  ret void
}