; Function Attrs: nofree norecurse nosync nounwind memory(write, argmem: readwrite, inaccessiblemem: none) uwtable
define hidden void @AnyIntSetLine(ptr nocapture noundef readonly %0, i32 noundef %1, i32 noundef %2, i32 noundef %3, i32 noundef %4, i32 noundef %5, i32 noundef %6, i32 noundef %7, i32 noundef %8, i32 noundef %9, ptr nocapture readnone %10, ptr nocapture readnone %11) #0 {
  %13 = getelementptr inbounds i8, ptr %0, i64 32
  %14 = load i32, ptr %13, align 8
  %15 = getelementptr inbounds i8, ptr %0, i64 16
  %16 = load ptr, ptr %15, align 8
  %17 = ptrtoint ptr %16 to i64
  %18 = sext i32 %2 to i64
  %19 = sext i32 %14 to i64
  %20 = mul nsw i64 %19, %18
  %21 = sext i32 %1 to i64
  %22 = shl nsw i64 %21, 2
  %23 = add nsw i64 %20, %22
  %24 = add nsw i64 %23, %17
  %25 = inttoptr i64 %24 to ptr
  %26 = and i32 %6, 1
  %.not = icmp eq i32 %26, 0
  br i1 %.not, label %27, label %33

27:                                               ; preds = %12
  %28 = and i32 %6, 2
  %.not40 = icmp eq i32 %28, 0
  br i1 %.not40, label %29, label %33

29:                                               ; preds = %27
  %30 = and i32 %6, 4
  %.not41 = icmp eq i32 %30, 0
  %31 = sub nsw i32 0, %14
  %32 = select i1 %.not41, i32 %31, i32 %14
  br label %33

33:                                               ; preds = %29, %27, %12
  %34 = phi i32 [ 4, %12 ], [ %32, %29 ], [ -4, %27 ]
  %35 = and i32 %8, 1
  %.not42 = icmp eq i32 %35, 0
  br i1 %.not42, label %36, label %44

36:                                               ; preds = %33
  %37 = and i32 %8, 2
  %.not43 = icmp eq i32 %37, 0
  br i1 %.not43, label %38, label %44

38:                                               ; preds = %36
  %39 = and i32 %8, 4
  %.not44 = icmp eq i32 %39, 0
  br i1 %.not44, label %40, label %44

40:                                               ; preds = %38
  %41 = and i32 %8, 8
  %.not45 = icmp eq i32 %41, 0
  %42 = sub nsw i32 0, %14
  %43 = select i1 %.not45, i32 0, i32 %42
  br label %44

44:                                               ; preds = %38, %36, %40, %33
  %45 = phi i32 [ 4, %33 ], [ -4, %36 ], [ %43, %40 ], [ %14, %38 ]
  %46 = icmp eq i32 %7, 0
  br i1 %46, label %.preheader, label %.preheader46

.preheader46:                                     ; preds = %44
  %47 = sub i32 0, %9
  br label %55

.preheader:                                       ; preds = %44
  %48 = sext i32 %34 to i64
  br label %49

49:                                               ; preds = %.preheader, %49
  %.035 = phi ptr [ %52, %49 ], [ %25, %.preheader ]
  %.0 = phi i32 [ %53, %49 ], [ %4, %.preheader ]
  store i32 %3, ptr %.035, align 4
  %50 = ptrtoint ptr %.035 to i64
  %51 = add nsw i64 %50, %48
  %52 = inttoptr i64 %51 to ptr
  %53 = add nsw i32 %.0, -1
  %54 = icmp sgt i32 %.0, 1
  br i1 %54, label %49, label %.loopexit, !llvm.loop !14

55:                                               ; preds = %.preheader46, %55
  %.037 = phi i32 [ %.138, %55 ], [ %5, %.preheader46 ]
  %.136 = phi ptr [ %.2, %55 ], [ %25, %.preheader46 ]
  %.1 = phi i32 [ %59, %55 ], [ %4, %.preheader46 ]
  store i32 %3, ptr %.136, align 4
  %56 = icmp slt i32 %.037, 0
  %57 = ptrtoint ptr %.136 to i64
  %.138.p = select i1 %56, i32 %7, i32 %47
  %.138 = add i32 %.037, %.138.p
  %58 = select i1 %56, i32 0, i32 %45
  %.2.in.v.v = add nsw i32 %34, %58
  %.2.in.v = sext i32 %.2.in.v.v to i64
  %.2.in = add nsw i64 %57, %.2.in.v
  %.2 = inttoptr i64 %.2.in to ptr
  %59 = add nsw i32 %.1, -1
  %60 = icmp sgt i32 %.1, 1
  br i1 %60, label %55, label %.loopexit, !llvm.loop !15

.loopexit:                                        ; preds = %55, %49
  ret void
}